target datalayout = "e-m:e-p270:32:32-p271:32:32-p272:64:64-i64:64-i128:128-f80:128-n8:16:32:64-S128"
target triple = "x86_64-pc-linux-gnu"

%struct.CodedBitstreamContext = type { ptr, ptr, ptr, ptr, i32, i32, i32, ptr, ptr, ptr, ptr, i64 }

@.str.6 = private unnamed_addr constant [4 x i8] c"%s\0A\00", align 1

; Function Attrs: nounwind uwtable
define void @ff_cbs_trace_header(ptr noundef %0, ptr noundef %1) #3 {
  %3 = alloca ptr, align 8
  %4 = alloca ptr, align 8
  store ptr %0, ptr %3, align 8, !tbaa !22
  store ptr %1, ptr %4, align 8, !tbaa !66
  %5 = load ptr, ptr %3, align 8, !tbaa !22
  %6 = getelementptr inbounds nuw %struct.CodedBitstreamContext, ptr %5, i32 0, i32 5
  %7 = load i32, ptr %6, align 4, !tbaa !34
  %8 = icmp ne i32 %7, 0
  br i1 %8, label %10, label %9

9:                                                ; preds = %2
  br label %18

10:                                               ; preds = %2
  %11 = load ptr, ptr %3, align 8, !tbaa !22
  %12 = getelementptr inbounds nuw %struct.CodedBitstreamContext, ptr %11, i32 0, i32 0
  %13 = load ptr, ptr %12, align 8, !tbaa !24
  %14 = load ptr, ptr %3, align 8, !tbaa !22
  %15 = getelementptr inbounds nuw %struct.CodedBitstreamContext, ptr %14, i32 0, i32 6
  %16 = load i32, ptr %15, align 8, !tbaa !35
  %17 = load ptr, ptr %4, align 8, !tbaa !66
  call void (ptr, i32, ptr, ...) @av_log(ptr noundef %13, i32 noundef %16, ptr noundef @.str.6, ptr noundef %17)
  br label %18

18:                                               ; preds = %10, %9
  ret void
}