; Function Attrs: nounwind uwtable
define void @ff_cbs_trace_header(ptr noundef readonly captures(none) %0, ptr noundef %1) local_unnamed_addr #3 {
  %3 = getelementptr inbounds nuw i8, ptr %0, i64 36
  %4 = load i32, ptr %3, align 4, !tbaa !29
  %.not = icmp eq i32 %4, 0
  br i1 %.not, label %9, label %5

5:                                                ; preds = %2
  %6 = load ptr, ptr %0, align 8, !tbaa !19
  %7 = getelementptr inbounds nuw i8, ptr %0, i64 40
  %8 = load i32, ptr %7, align 8, !tbaa !30
  tail call void (ptr, i32, ptr, ...) @av_log(ptr noundef %6, i32 noundef %8, ptr noundef nonnull @.str.6, ptr noundef %1) #10
  br label %9

9:                                                ; preds = %2, %5
  ret void
}